(lp0
(iHaar
HaarClassI
p1
(dp2
S'parity'
p3
I-1
sS'inverse'
p4
I0
sS'class_type'
p5
I1
sS'weight'
p6
F0.2916782054935293
sS'height'
p7
I1
sS'width'
p8
I1
sS'threshold'
p9
cnumpy.core.multiarray
scalar
p10
(cnumpy
dtype
p11
(S'f4'
p12
I0
I1
tp13
Rp14
(I3
S'<'
p15
NNNI-1
I-1
I0
tp16
bS'\x00h\x80F'
p17
tp18
Rp19
sS'x'
p20
I0
sS'y'
p21
I5
sba(iHaar
HaarClassI
p22
(dp23
g3
I-1
sg4
I1
sg5
I1
sg6
F0.19568741412055696
sg7
I3
sg8
I1
sg9
F34.0
sg20
I3
sg21
I8
sba(iHaar
HaarClassII
p24
(dp25
g3
I-1
sg4
I0
sg5
I2
sg6
F0.18835698302674422
sg7
I3
sg8
I7
sg9
F216.0
sg20
I1
sg21
I6
sba(iHaar
HaarClassIV
p26
(dp27
g3
I1
sg4
I1
sg5
I4
sg6
F0.14486057671383007
sg7
I3
sg8
I3
sg9
F-134.0
sg20
I0
sg21
I0
sba(iHaar
HaarClassII
p28
(dp29
g3
I-1
sg4
I0
sg5
I2
sg6
F0.13611045915930667
sg7
I1
sg8
I1
sg9
F13.0
sg20
I9
sg21
I7
sba(iHaar
HaarClassI
p30
(dp31
g3
I-1
sg4
I0
sg5
I1
sg6
F0.12607056230006747
sg7
I3
sg8
I1
sg9
F47.0
sg20
I4
sg21
I6
sba(iHaar
HaarClassI
p32
(dp33
g3
I1
sg4
I0
sg5
I1
sg6
F0.11719270581622128
sg7
I7
sg8
I1
sg9
F-52.0
sg20
I9
sg21
I14
sba(iHaar
HaarClassIV
p34
(dp35
g3
I1
sg4
I0
sg5
I4
sg6
F0.11561723374716475
sg7
I2
sg8
I3
sg9
F-78.0
sg20
I0
sg21
I10
sba(iHaar
HaarClassII
p36
(dp37
g3
I1
sg4
I0
sg5
I2
sg6
F0.10787421388987
sg7
I1
sg8
I1
sg9
F-7.0
sg20
I5
sg21
I3
sba(iHaar
HaarClassII
p38
(dp39
g3
I-1
sg4
I0
sg5
I2
sg6
F0.1081288137341187
sg7
I1
sg8
I2
sg9
F38.0
sg20
I8
sg21
I7
sba(iHaar
HaarClassII
p40
(dp41
g3
I1
sg4
I1
sg5
I2
sg6
F0.10057186953814552
sg7
I2
sg8
I2
sg9
F-11.0
sg20
I8
sg21
I0
sba(iHaar
HaarClassII
p42
(dp43
g3
I-1
sg4
I1
sg5
I2
sg6
F0.10030018895095334
sg7
I4
sg8
I6
sg9
F4695.0
sg20
I0
sg21
I10
sba(iHaar
HaarClassII
p44
(dp45
g3
I-1
sg4
I1
sg5
I2
sg6
F0.10709040414533562
sg7
I1
sg8
I1
sg9
F7.0
sg20
I5
sg21
I12
sba(iHaar
HaarClassI
p46
(dp47
g3
I1
sg4
I0
sg5
I1
sg6
F0.09277509373962965
sg7
I1
sg8
I1
sg9
F-6.0
sg20
I4
sg21
I8
sba(iHaar
HaarClassI
p48
(dp49
g3
I1
sg4
I1
sg5
I1
sg6
F0.09126407306083627
sg7
I7
sg8
I1
sg9
F-20.0
sg20
I9
sg21
I0
sba(iHaar
HaarClassIV
p50
(dp51
g3
I1
sg4
I0
sg5
I4
sg6
F0.08501968945779327
sg7
I1
sg8
I4
sg9
F-34.0
sg20
I14
sg21
I0
sba(iHaar
HaarClassII
p52
(dp53
g3
I-1
sg4
I0
sg5
I2
sg6
F0.08304319754135413
sg7
I1
sg8
I1
sg9
F1.0
sg20
I8
sg21
I14
sba(iHaar
HaarClassI
p54
(dp55
g3
I-1
sg4
I1
sg5
I1
sg6
F0.0863415531755927
sg7
I1
sg8
I1
sg9
F5.0
sg20
I0
sg21
I14
sba(iHaar
HaarClassIV
p56
(dp57
g3
I-1
sg4
I0
sg5
I4
sg6
F0.08213518218093037
sg7
I2
sg8
I3
sg9
F35.0
sg20
I0
sg21
I0
sba(iHaar
HaarClassI
p58
(dp59
g3
I1
sg4
I1
sg5
I1
sg6
F0.07679200339150473
sg7
I3
sg8
I3
sg9
F-44.0
sg20
I9
sg21
I8
sba(iHaar
HaarClassII
p60
(dp61
g3
I-1
sg4
I0
sg5
I2
sg6
F0.07648665913420413
sg7
I1
sg8
I7
sg9
F78.0
sg20
I0
sg21
I5
sba(iHaar
HaarClassII
p62
(dp63
g3
I-1
sg4
I0
sg5
I2
sg6
F0.08215671758369343
sg7
I1
sg8
I2
sg9
F1.0
sg20
I10
sg21
I13
sba(iHaar
HaarClassI
p64
(dp65
g3
I-1
sg4
I0
sg5
I1
sg6
F0.07741135356084458
sg7
I1
sg8
I1
sg9
F3.0
sg20
I0
sg21
I0
sba(iHaar
HaarClassI
p66
(dp67
g3
I-1
sg4
I1
sg5
I1
sg6
F0.07574183936225411
sg7
I2
sg8
I1
sg9
F2.0
sg20
I8
sg21
I3
sba(iHaar
HaarClassIV
p68
(dp69
g3
I1
sg4
I1
sg5
I4
sg6
F0.07659962182334329
sg7
I3
sg8
I3
sg9
F-1732.0
sg20
I2
sg21
I0
sba(iHaar
HaarClassII
p70
(dp71
g3
I-1
sg4
I0
sg5
I2
sg6
F0.08089788292276814
sg7
I1
sg8
I3
sg9
F2.0
sg20
I11
sg21
I0
sba(iHaar
HaarClassI
p72
(dp73
g3
I1
sg4
I0
sg5
I1
sg6
F0.07270111484501036
sg7
I1
sg8
I1
sg9
F-5.0
sg20
I3
sg21
I9
sba(iHaar
HaarClassII
p74
(dp75
g3
I-1
sg4
I0
sg5
I2
sg6
F0.07306429801197671
sg7
I1
sg8
I1
sg9
F1.0
sg20
I8
sg21
I1
sba(iHaar
HaarClassI
p76
(dp77
g3
I1
sg4
I0
sg5
I1
sg6
F0.07096068617430433
sg7
I1
sg8
I1
sg9
F-7.0
sg20
I7
sg21
I8
sba(iHaar
HaarClassII
p78
(dp79
g3
I-1
sg4
I1
sg5
I2
sg6
F0.06694025019204576
sg7
I4
sg8
I3
sg9
F2590.0
sg20
I1
sg21
I13
sba(iHaar
HaarClassII
p80
(dp81
g3
I-1
sg4
I0
sg5
I2
sg6
F0.07520448324063216
sg7
I1
sg8
I2
sg9
F-2.0
sg20
I9
sg21
I14
sba(iHaar
HaarClassI
p82
(dp83
g3
I-1
sg4
I0
sg5
I1
sg6
F0.06973081957318365
sg7
I5
sg8
I2
sg9
F56.0
sg20
I0
sg21
I4
sba(iHaar
HaarClassII
p84
(dp85
g3
I1
sg4
I0
sg5
I2
sg6
F0.06665737545986614
sg7
I1
sg8
I6
sg9
F-34.0
sg20
I5
sg21
I4
sba(iHaar
HaarClassII
p86
(dp87
g3
I-1
sg4
I1
sg5
I2
sg6
F0.0740962501165987
sg7
I4
sg8
I4
sg9
F3359.0
sg20
I1
sg21
I12
sba(iHaar
HaarClassII
p88
(dp89
g3
I-1
sg4
I1
sg5
I2
sg6
F0.06807655746096623
sg7
I1
sg8
I1
sg9
F2.0
sg20
I4
sg21
I7
sba(iHaar
HaarClassII
p90
(dp91
g3
I1
sg4
I1
sg5
I2
sg6
F0.06404018986315194
sg7
I1
sg8
I4
sg9
F-2.0
sg20
I9
sg21
I0
sba(iHaar
HaarClassIV
p92
(dp93
g3
I-1
sg4
I0
sg5
I4
sg6
F0.06294989721304288
sg7
I3
sg8
I1
sg9
F5.0
sg20
I4
sg21
I13
sba(iHaar
HaarClassI
p94
(dp95
g3
I-1
sg4
I1
sg5
I1
sg6
F0.06718695582316184
sg7
I1
sg8
I1
sg9
F241.0
sg20
I12
sg21
I6
sba(iHaar
HaarClassIV
p96
(dp97
g3
I-1
sg4
I1
sg5
I4
sg6
F0.0672573962678174
sg7
I1
sg8
I1
sg9
F-5.0
sg20
I7
sg21
I1
sba(iHaar
HaarClassI
p98
(dp99
g3
I-1
sg4
I1
sg5
I1
sg6
F0.06308562187434079
sg7
I1
sg8
I4
sg9
F46.0
sg20
I0
sg21
I8
sba(iHaar
HaarClassII
p100
(dp101
g3
I1
sg4
I1
sg5
I2
sg6
F0.06169740107774464
sg7
I2
sg8
I3
sg9
F-23.0
sg20
I12
sg21
I0
sba(iHaar
HaarClassII
p102
(dp103
g3
I1
sg4
I0
sg5
I2
sg6
F0.06261437985075692
sg7
I1
sg8
I2
sg9
F-11.0
sg20
I13
sg21
I7
sba(iHaar
HaarClassI
p104
(dp105
g3
I-1
sg4
I0
sg5
I1
sg6
F0.07004937398081924
sg7
I1
sg8
I1
sg9
F4.0
sg20
I7
sg21
I6
sba(iHaar
HaarClassII
p106
(dp107
g3
I-1
sg4
I1
sg5
I2
sg6
F0.05874041086225529
sg7
I4
sg8
I2
sg9
F1691.0
sg20
I0
sg21
I13
sba(iHaar
HaarClassII
p108
(dp109
g3
I-1
sg4
I1
sg5
I2
sg6
F0.06450847129998934
sg7
I1
sg8
I1
sg9
F0.0
sg20
I5
sg21
I6
sba(iHaar
HaarClassII
p110
(dp111
g3
I-1
sg4
I0
sg5
I2
sg6
F0.06172502288139294
sg7
I1
sg8
I2
sg9
F1.0
sg20
I10
sg21
I1
sba(iHaar
HaarClassII
p112
(dp113
g3
I1
sg4
I1
sg5
I2
sg6
F0.0571821253064632
sg7
I1
sg8
I4
sg9
F-1.0
sg20
I14
sg21
I12
sba(iHaar
HaarClassIII
p114
(dp115
g3
I-1
sg4
I1
sg5
I3
sg6
F0.062004581251002173
sg7
I1
sg8
I1
sg9
F472.0
sg20
I12
sg21
I6
sba(iHaar
HaarClassIV
p116
(dp117
g3
I-1
sg4
I1
sg5
I4
sg6
F0.06516069234419224
sg7
I2
sg8
I1
sg9
F1.0
sg20
I1
sg21
I12
sba(iHaar
HaarClassIV
p118
(dp119
g3
I-1
sg4
I1
sg5
I4
sg6
F0.05429297822381458
sg7
I4
sg8
I1
sg9
F-6.0
sg20
I3
sg21
I1
sba(iHaar
HaarClassI
p120
(dp121
g3
I-1
sg4
I1
sg5
I1
sg6
F0.056195318391847826
sg7
I4
sg8
I1
sg9
F43.0
sg20
I4
sg21
I7
sba(iHaar
HaarClassIV
p122
(dp123
g3
I-1
sg4
I0
sg5
I4
sg6
F0.06025965694043387
sg7
I1
sg8
I1
sg9
F-6.0
sg20
I7
sg21
I13
sba(iHaar
HaarClassIV
p124
(dp125
g3
I1
sg4
I1
sg5
I4
sg6
F0.05773741353753271
sg7
I4
sg8
I3
sg9
F-2185.0
sg20
I1
sg21
I0
sba(iHaar
HaarClassII
p126
(dp127
g3
I-1
sg4
I0
sg5
I2
sg6
F0.06294150790355672
sg7
I1
sg8
I4
sg9
F6.0
sg20
I11
sg21
I12
sba(iHaar
HaarClassIV
p128
(dp129
g3
I1
sg4
I0
sg5
I4
sg6
F0.05824565578002894
sg7
I6
sg8
I7
sg9
F519.0
sg20
I0
sg21
I1
sba(iHaar
HaarClassII
p130
(dp131
g3
I1
sg4
I0
sg5
I2
sg6
F0.055216141745517866
sg7
I1
sg8
I2
sg9
F-18.0
sg20
I14
sg21
I7
sba(iHaar
HaarClassI
p132
(dp133
g3
I-1
sg4
I0
sg5
I1
sg6
F0.058314766749663585
sg7
I1
sg8
I1
sg9
F2.0
sg20
I3
sg21
I5
sba(iHaar
HaarClassII
p134
(dp135
g3
I1
sg4
I1
sg5
I2
sg6
F0.056120175360947565
sg7
I1
sg8
I2
sg9
F-12.0
sg20
I0
sg21
I6
sba(iHaar
HaarClassII
p136
(dp137
g3
I-1
sg4
I0
sg5
I2
sg6
F0.052733146476299585
sg7
I1
sg8
I1
sg9
F-2.0
sg20
I8
sg21
I15
sba(iHaar
HaarClassIII
p138
(dp139
g3
I-1
sg4
I1
sg5
I3
sg6
F0.055484052391008835
sg7
I3
sg8
I1
sg9
F927.0
sg20
I10
sg21
I6
sba(iHaar
HaarClassIV
p140
(dp141
g3
I-1
sg4
I1
sg5
I4
sg6
F0.05949574562533464
sg7
I1
sg8
I1
sg9
F-7.0
sg20
I8
sg21
I2
sba(iHaar
HaarClassII
p142
(dp143
g3
I1
sg4
I0
sg5
I2
sg6
F0.05185094769897032
sg7
I1
sg8
I1
sg9
F-9.0
sg20
I4
sg21
I11
sba(iHaar
HaarClassI
p144
(dp145
g3
I-1
sg4
I1
sg5
I1
sg6
F0.050029119182783056
sg7
I3
sg8
I1
sg9
F1.0
sg20
I1
sg21
I9
sba(iHaar
HaarClassII
p146
(dp147
g3
I-1
sg4
I1
sg5
I2
sg6
F0.05754483649773006
sg7
I4
sg8
I2
sg9
F1754.0
sg20
I1
sg21
I14
sba(iHaar
HaarClassIV
p148
(dp149
g3
I-1
sg4
I1
sg5
I4
sg6
F0.06007532250441353
sg7
I1
sg8
I1
sg9
F-7.0
sg20
I9
sg21
I2
sba(iHaar
HaarClassI
p150
(dp151
g3
I-1
sg4
I0
sg5
I1
sg6
F0.05334602952386893
sg7
I1
sg8
I1
sg9
F3.0
sg20
I8
sg21
I6
sba(iHaar
HaarClassII
p152
(dp153
g3
I-1
sg4
I1
sg5
I2
sg6
F0.05315268894106568
sg7
I5
sg8
I2
sg9
F2162.0
sg20
I0
sg21
I13
sba(iHaar
HaarClassII
p154
(dp155
g3
I-1
sg4
I1
sg5
I2
sg6
F0.06083439533401673
sg7
I1
sg8
I1
sg9
F1.0
sg20
I5
sg21
I9
sba(iHaar
HaarClassII
p156
(dp157
g3
I1
sg4
I1
sg5
I2
sg6
F0.05061548211166935
sg7
I5
sg8
I3
sg9
F98.0
sg20
I2
sg21
I7
sba(iHaar
HaarClassII
p158
(dp159
g3
I1
sg4
I0
sg5
I2
sg6
F0.05019071566160703
sg7
I1
sg8
I4
sg9
F-20.0
sg20
I4
sg21
I5
sba(iHaar
HaarClassII
p160
(dp161
g3
I-1
sg4
I0
sg5
I2
sg6
F0.05017606238968
sg7
I3
sg8
I1
sg9
F702.0
sg20
I7
sg21
I7
sba(iHaar
HaarClassII
p162
(dp163
g3
I1
sg4
I1
sg5
I2
sg6
F0.05653558127067481
sg7
I1
sg8
I2
sg9
F2.0
sg20
I12
sg21
I1
sba(iHaar
HaarClassI
p164
(dp165
g3
I-1
sg4
I0
sg5
I1
sg6
F0.051199229167322204
sg7
I1
sg8
I1
sg9
F2.0
sg20
I3
sg21
I6
sba(iHaar
HaarClassII
p166
(dp167
g3
I1
sg4
I1
sg5
I2
sg6
F0.048484268348620886
sg7
I2
sg8
I1
sg9
F-5.0
sg20
I0
sg21
I8
sba(iHaar
HaarClassII
p168
(dp169
g3
I-1
sg4
I1
sg5
I2
sg6
F0.05019313837383169
sg7
I5
sg8
I1
sg9
F1135.0
sg20
I0
sg21
I15
sba(iHaar
HaarClassIV
p170
(dp171
g3
I-1
sg4
I1
sg5
I4
sg6
F0.05875752886308411
sg7
I1
sg8
I1
sg9
F-7.0
sg20
I6
sg21
I1
sba(iHaar
HaarClassI
p172
(dp173
g3
I-1
sg4
I1
sg5
I1
sg6
F0.049136075264800017
sg7
I1
sg8
I1
sg9
F3.0
sg20
I5
sg21
I0
sba(iHaar
HaarClassII
p174
(dp175
g3
I1
sg4
I1
sg5
I2
sg6
F0.04881722142946004
sg7
I1
sg8
I4
sg9
F-6.0
sg20
I14
sg21
I0
sba(iHaar
HaarClassIV
p176
(dp177
g3
I1
sg4
I0
sg5
I4
sg6
F0.04621986985301232
sg7
I1
sg8
I7
sg9
F45.0
sg20
I8
sg21
I1
sba(iHaar
HaarClassII
p178
(dp179
g3
I-1
sg4
I0
sg5
I2
sg6
F0.05351773169753897
sg7
I2
sg8
I1
sg9
F469.0
sg20
I8
sg21
I7
sba(iHaar
HaarClassII
p180
(dp181
g3
I-1
sg4
I0
sg5
I2
sg6
F0.0539121824820041
sg7
I1
sg8
I1
sg9
F-2.0
sg20
I10
sg21
I1
sba(iHaar
HaarClassIV
p182
(dp183
g3
I-1
sg4
I0
sg5
I4
sg6
F0.04775161641931652
sg7
I1
sg8
I3
sg9
F15.0
sg20
I14
sg21
I10
sba(iHaar
HaarClassII
p184
(dp185
g3
I-1
sg4
I0
sg5
I2
sg6
F0.048428641217963135
sg7
I1
sg8
I5
sg9
F11.0
sg20
I12
sg21
I11
sba(iHaar
HaarClassI
p186
(dp187
g3
I-1
sg4
I0
sg5
I1
sg6
F0.04638984155017279
sg7
I2
sg8
I3
sg9
F-94.0
sg20
I5
sg21
I1
sba(iHaar
HaarClassIV
p188
(dp189
g3
I-1
sg4
I0
sg5
I4
sg6
F0.05236343706565935
sg7
I3
sg8
I1
sg9
F647.0
sg20
I2
sg21
I4
sba(iHaar
HaarClassIV
p190
(dp191
g3
I-1
sg4
I1
sg5
I4
sg6
F0.05286639886220516
sg7
I1
sg8
I1
sg9
F-5.0
sg20
I9
sg21
I13
sba(iHaar
HaarClassI
p192
(dp193
g3
I-1
sg4
I1
sg5
I1
sg6
F0.049295494599187556
sg7
I1
sg8
I1
sg9
F2.0
sg20
I4
sg21
I2
sba(iHaar
HaarClassI
p194
(dp195
g3
I-1
sg4
I0
sg5
I1
sg6
F0.047926708762371144
sg7
I4
sg8
I1
sg9
F0.0
sg20
I5
sg21
I12
sba(iHaar
HaarClassII
p196
(dp197
g3
I-1
sg4
I1
sg5
I2
sg6
F0.049790223854568945
sg7
I1
sg8
I1
sg9
F216.0
sg20
I13
sg21
I8
sba(iHaar
HaarClassI
p198
(dp199
g3
I-1
sg4
I1
sg5
I1
sg6
F0.052837228768855646
sg7
I1
sg8
I4
sg9
F-76.0
sg20
I6
sg21
I8
sba(iHaar
HaarClassI
p200
(dp201
g3
I-1
sg4
I0
sg5
I1
sg6
F0.047175607252607325
sg7
I1
sg8
I3
sg9
F14.0
sg20
I0
sg21
I0
sba(iHaar
HaarClassII
p202
(dp203
g3
I-1
sg4
I1
sg5
I2
sg6
F0.04626739523169654
sg7
I3
sg8
I1
sg9
F638.0
sg20
I2
sg21
I15
sba(iHaar
HaarClassIV
p204
(dp205
g3
I-1
sg4
I1
sg5
I4
sg6
F0.05502001625782709
sg7
I1
sg8
I1
sg9
F-7.0
sg20
I8
sg21
I1
sba(iHaar
HaarClassI
p206
(dp207
g3
I-1
sg4
I1
sg5
I1
sg6
F0.04611406719679152
sg7
I1
sg8
I1
sg9
F5.0
sg20
I8
sg21
I8
sba(iHaar
HaarClassI
p208
(dp209
g3
I-1
sg4
I1
sg5
I1
sg6
F0.04423164835011997
sg7
I5
sg8
I1
sg9
F4.0
sg20
I7
sg21
I3
sba(iHaar
HaarClassII
p210
(dp211
g3
I-1
sg4
I1
sg5
I2
sg6
F0.04581283028075652
sg7
I4
sg8
I1
sg9
F889.0
sg20
I1
sg21
I15
sba(iHaar
HaarClassIV
p212
(dp213
g3
I-1
sg4
I0
sg5
I4
sg6
F0.053688724784538615
sg7
I1
sg8
I1
sg9
F-7.0
sg20
I6
sg21
I13
sba(iHaar
HaarClassIV
p214
(dp215
g3
I-1
sg4
I1
sg5
I4
sg6
F0.044759620818523485
sg7
I1
sg8
I1
sg9
F1.0
sg20
I2
sg21
I11
sba(iHaar
HaarClassII
p216
(dp217
g3
I1
sg4
I1
sg5
I2
sg6
F0.04475665502889875
sg7
I5
sg8
I2
sg9
F157.0
sg20
I1
sg21
I6
sba(iHaar
HaarClassII
p218
(dp219
g3
I-1
sg4
I1
sg5
I2
sg6
F0.04385492246357794
sg7
I5
sg8
I1
sg9
F1101.0
sg20
I0
sg21
I14
sba.